; Function Attrs: nounwind sspstrong uwtable
define internal i64 @enum_max_by(i32 noundef %0, ptr noundef %1, i64 noundef %2) #0 {
  %or.cond.i = icmp ugt i32 %0, 1
  br i1 %or.cond.i, label %4, label %rb_check_arity.exit

4:                                                ; preds = %3
  tail call void @rb_error_arity(i32 noundef %0, i32 noundef 0, i32 noundef 1) #15
  unreachable

rb_check_arity.exit:                              ; preds = %3
  %5 = tail call i32 @rb_block_given_p() #14
  %.not = icmp eq i32 %5, 0
  br i1 %.not, label %6, label %10

6:                                                ; preds = %rb_check_arity.exit
  %7 = tail call i64 @rb_frame_this_func() #14
  %8 = tail call i64 @rb_id2sym(i64 noundef %7) #14
  %9 = tail call i64 @rb_enumeratorize_with_size(i64 noundef %2, i64 noundef %8, i32 noundef %0, ptr noundef %1, ptr noundef nonnull @enum_size) #14
  br label %24

10:                                               ; preds = %rb_check_arity.exit
  %.not12 = icmp eq i32 %0, 0
  br i1 %.not12, label %16, label %11

11:                                               ; preds = %10
  %12 = load i64, ptr %1, align 8, !tbaa !7
  %13 = icmp eq i64 %12, 4
  br i1 %13, label %16, label %14

14:                                               ; preds = %11
  %15 = tail call i64 @rb_nmin_run(i64 noundef %2, i64 noundef %12, i32 noundef 1, i32 noundef 1, i32 noundef 0)
  br label %24

16:                                               ; preds = %11, %10
  %17 = tail call i64 @rb_imemo_new(i32 noundef 5, i64 noundef 0, i64 noundef 40) #14
  %18 = inttoptr i64 %17 to ptr
  %19 = getelementptr inbounds nuw i8, ptr %18, i64 16
  store i64 36, ptr %19, align 8, !tbaa !7
  %20 = getelementptr inbounds nuw i8, ptr %18, i64 24
  store i64 4, ptr %20, align 8, !tbaa !7
  %21 = getelementptr inbounds nuw i8, ptr %18, i64 32
  store i64 0, ptr %21, align 8, !tbaa !22
  %22 = tail call i64 @rb_block_call(i64 noundef %2, i64 noundef 3073, i32 noundef 0, ptr noundef null, ptr noundef nonnull @max_by_i, i64 noundef %17) #14
  %23 = load i64, ptr %20, align 8, !tbaa !67
  br label %24

24:                                               ; preds = %16, %14, %6
  %.0 = phi i64 [ %23, %16 ], [ %15, %14 ], [ %9, %6 ]
  ret i64 %.0
}